target datalayout = "e-m:e-p270:32:32-p271:32:32-p272:64:64-i64:64-i128:128-f80:128-n8:16:32:64-S128"
target triple = "x86_64-unknown-linux-gnu"

%"class.icu_75::UObject" = type { ptr }
%"class.icu_75::UnicodeString" = type { %"class.icu_75::Replaceable", %"union.icu_75::UnicodeString::StackBufferOrFields" }
%"class.icu_75::Replaceable" = type { %"class.icu_75::UObject" }
%"union.icu_75::UnicodeString::StackBufferOrFields" = type { %struct.anon.6, [32 x i8] }
%struct.anon.6 = type { i16, i32, i32, ptr }
%"class.icu_75::number::impl::PropertiesAffixPatternProvider" = type <{ %"class.icu_75::number::impl::AffixPatternProvider", %"class.icu_75::UnicodeString", %"class.icu_75::UnicodeString", %"class.icu_75::UnicodeString", %"class.icu_75::UnicodeString", i8, i8, i8, [5 x i8] }>
%"class.icu_75::number::impl::AffixPatternProvider" = type { ptr }
%"class.icu_75::number::impl::CurrencyPluralInfoAffixProvider" = type <{ %"class.icu_75::number::impl::AffixPatternProvider", [8 x %"class.icu_75::number::impl::PropertiesAffixPatternProvider"], i8, [7 x i8] }>

; Function Attrs: mustprogress uwtable
define noundef zeroext i16 @_ZNK6icu_756number4impl31CurrencyPluralInfoAffixProvider6charAtEii(ptr noundef nonnull align 8 dereferenceable(2185) %this, i32 noundef %flags, i32 noundef %i) unnamed_addr #1 align 2 {
entry:
  %this.addr = alloca ptr, align 8
  %flags.addr = alloca i32, align 4
  %i.addr = alloca i32, align 4
  %pluralOrdinal = alloca i32, align 4
  store ptr %this, ptr %this.addr, align 8
  store i32 %flags, ptr %flags.addr, align 4
  store i32 %i, ptr %i.addr, align 4
  %this1 = load ptr, ptr %this.addr, align 8
  %0 = load i32, ptr %flags.addr, align 4
  %and = and i32 %0, 255
  store i32 %and, ptr %pluralOrdinal, align 4
  %affixesByPlural = getelementptr inbounds %"class.icu_75::number::impl::CurrencyPluralInfoAffixProvider", ptr %this1, i32 0, i32 1
  %1 = load i32, ptr %pluralOrdinal, align 4
  %idxprom = sext i32 %1 to i64
  %arrayidx = getelementptr inbounds [8 x %"class.icu_75::number::impl::PropertiesAffixPatternProvider"], ptr %affixesByPlural, i64 0, i64 %idxprom
  %2 = load i32, ptr %flags.addr, align 4
  %3 = load i32, ptr %i.addr, align 4
  %vtable = load ptr, ptr %arrayidx, align 8
  %vfn = getelementptr inbounds ptr, ptr %vtable, i64 2
  %4 = load ptr, ptr %vfn, align 8
  %call = call noundef zeroext i16 %4(ptr noundef nonnull align 8 dereferenceable(267) %arrayidx, i32 noundef %2, i32 noundef %3)
  ret i16 %call
}