; Function Attrs: mustprogress uwtable
define noundef zeroext i16 @_ZNK6icu_756number4impl31CurrencyPluralInfoAffixProvider6charAtEii(ptr noundef nonnull align 8 dereferenceable(2185) %this, i32 noundef %flags, i32 noundef %i) unnamed_addr #1 align 2 {
entry:
  %and = and i32 %flags, 255
  %affixesByPlural = getelementptr inbounds i8, ptr %this, i64 8
  %idxprom = zext nneg i32 %and to i64
  %arrayidx = getelementptr inbounds [8 x %"class.icu_75::number::impl::PropertiesAffixPatternProvider"], ptr %affixesByPlural, i64 0, i64 %idxprom
  %vtable = load ptr, ptr %arrayidx, align 8
  %vfn = getelementptr inbounds i8, ptr %vtable, i64 16
  %0 = load ptr, ptr %vfn, align 8
  %call = tail call noundef zeroext i16 %0(ptr noundef nonnull align 8 dereferenceable(267) %arrayidx, i32 noundef %flags, i32 noundef %i)
  ret i16 %call
}